; ModuleID = '31/1434.c'
source_filename = "31/1434.c"
target datalayout = "e-m:e-p270:32:32-p271:32:32-p272:64:64-i64:64-f80:128-n8:16:32:64-S128"
target triple = "x86_64-pc-linux-gnu"

%struct.student = type { [200 x i8], %struct.student* }

@.str = private unnamed_addr constant [4 x i8] c"end\00", align 1

; Function Attrs: noinline nounwind uwtable
define dso_local %struct.student* @creat() #0 {
  %1 = alloca i32, align 4
  %2 = alloca %struct.student*, align 8
  %3 = alloca %struct.student*, align 8
  %4 = alloca %struct.student*, align 8
  store i32 0, i32* %1, align 4
  %5 = call noalias i8* @malloc(i64 100) #4
  %6 = bitcast i8* %5 to %struct.student*
  store %struct.student* %6, %struct.student** %3, align 8
  %7 = load %struct.student*, %struct.student** %3, align 8
  %8 = getelementptr inbounds %struct.student, %struct.student* %7, i32 0, i32 0
  %9 = getelementptr inbounds [200 x i8], [200 x i8]* %8, i64 0, i64 0
  %10 = call i32 (i8*, ...) bitcast (i32 (...)* @gets to i32 (i8*, ...)*)(i8* %9)
  %11 = load %struct.student*, %struct.student** %3, align 8
  %12 = getelementptr inbounds %struct.student, %struct.student* %11, i32 0, i32 1
  store %struct.student* null, %struct.student** %12, align 8
  %13 = load %struct.student*, %struct.student** %3, align 8
  store %struct.student* %13, %struct.student** %4, align 8
  br label %14

14:                                               ; preds = %37, %0
  %15 = call noalias i8* @malloc(i64 100) #4
  %16 = bitcast i8* %15 to %struct.student*
  store %struct.student* %16, %struct.student** %3, align 8
  %17 = load %struct.student*, %struct.student** %3, align 8
  %18 = getelementptr inbounds %struct.student, %struct.student* %17, i32 0, i32 0
  %19 = getelementptr inbounds [200 x i8], [200 x i8]* %18, i64 0, i64 0
  %20 = call i32 (i8*, ...) bitcast (i32 (...)* @gets to i32 (i8*, ...)*)(i8* %19)
  %21 = load %struct.student*, %struct.student** %3, align 8
  %22 = getelementptr inbounds %struct.student, %struct.student* %21, i32 0, i32 0
  %23 = getelementptr inbounds [200 x i8], [200 x i8]* %22, i64 0, i64 0
  %24 = call i32 @strcmp(i8* %23, i8* getelementptr inbounds ([4 x i8], [4 x i8]* @.str, i64 0, i64 0)) #5
  %25 = icmp eq i32 %24, 0
  br i1 %25, label %26, label %30

26:                                               ; preds = %14
  %27 = load %struct.student*, %struct.student** %3, align 8
  %28 = bitcast %struct.student* %27 to i8*
  call void @free(i8* %28) #4
  %29 = load %struct.student*, %struct.student** %4, align 8
  store %struct.student* %29, %struct.student** %2, align 8
  br label %38

30:                                               ; preds = %14
  %31 = load %struct.student*, %struct.student** %4, align 8
  %32 = load %struct.student*, %struct.student** %3, align 8
  %33 = getelementptr inbounds %struct.student, %struct.student* %32, i32 0, i32 1
  store %struct.student* %31, %struct.student** %33, align 8
  %34 = load %struct.student*, %struct.student** %3, align 8
  store %struct.student* %34, %struct.student** %2, align 8
  %35 = load %struct.student*, %struct.student** %3, align 8
  store %struct.student* %35, %struct.student** %4, align 8
  br label %36

36:                                               ; preds = %30
  br label %37

37:                                               ; preds = %36
  br i1 true, label %14, label %38

38:                                               ; preds = %37, %26
  %39 = load %struct.student*, %struct.student** %2, align 8
  ret %struct.student* %39
}

; Function Attrs: nounwind
declare dso_local noalias i8* @malloc(i64) #1

declare dso_local i32 @gets(...) #2

; Function Attrs: nounwind readonly
declare dso_local i32 @strcmp(i8*, i8*) #3

; Function Attrs: nounwind
declare dso_local void @free(i8*) #1

; Function Attrs: noinline nounwind uwtable
define dso_local void @print(%struct.student* %0) #0 {
  %2 = alloca %struct.student*, align 8
  %3 = alloca %struct.student*, align 8
  store %struct.student* %0, %struct.student** %2, align 8
  %4 = load %struct.student*, %struct.student** %2, align 8
  store %struct.student* %4, %struct.student** %3, align 8
  %5 = load %struct.student*, %struct.student** %2, align 8
  %6 = icmp ne %struct.student* %5, null
  br i1 %6, label %7, label %20

7:                                                ; preds = %1
  br label %8

8:                                                ; preds = %16, %7
  %9 = load %struct.student*, %struct.student** %3, align 8
  %10 = getelementptr inbounds %struct.student, %struct.student* %9, i32 0, i32 0
  %11 = getelementptr inbounds [200 x i8], [200 x i8]* %10, i64 0, i64 0
  %12 = call i32 @puts(i8* %11)
  %13 = load %struct.student*, %struct.student** %3, align 8
  %14 = getelementptr inbounds %struct.student, %struct.student* %13, i32 0, i32 1
  %15 = load %struct.student*, %struct.student** %14, align 8
  store %struct.student* %15, %struct.student** %3, align 8
  br label %16

16:                                               ; preds = %8
  %17 = load %struct.student*, %struct.student** %3, align 8
  %18 = icmp ne %struct.student* %17, null
  br i1 %18, label %8, label %19

19:                                               ; preds = %16
  br label %20

20:                                               ; preds = %19, %1
  ret void
}

declare dso_local i32 @puts(i8*) #2

; Function Attrs: noinline nounwind uwtable
define dso_local void @main() #0 {
  %1 = alloca %struct.student*, align 8
  %2 = call %struct.student* @creat()
  store %struct.student* %2, %struct.student** %1, align 8
  %3 = load %struct.student*, %struct.student** %1, align 8
  call void @print(%struct.student* %3)
  ret void
}


!llvm.module.flags = !{!0}
!llvm.ident = !{!1}

!0 = !{i32 1, !"wchar_size", i32 4}
!1 = !{!"clang version 10.0.0-4ubuntu1 "}
